; Function Attrs: nounwind uwtable
define ptr @l_Std_Time_ValidDate_dayOfYear(i8 noundef zeroext %0, ptr noundef readonly captures(none) %1) local_unnamed_addr #1 {
  %3 = getelementptr inbounds nuw i8, ptr %1, i64 8
  %4 = load ptr, ptr %3, align 8, !tbaa !4
  %5 = tail call ptr @l_Std_Time_Month_Ordinal_cumulativeDays(i8 noundef zeroext %0, ptr noundef %4) #5
  %6 = getelementptr inbounds nuw i8, ptr %1, i64 16
  %7 = load ptr, ptr %6, align 8, !tbaa !4
  %8 = ptrtoint ptr %5 to i64
  %9 = and i64 %8, 1
  %.not.i7 = icmp eq i64 %9, 0
  br i1 %.not.i7, label %29, label %10, !prof !14

10:                                               ; preds = %2
  %11 = ptrtoint ptr %7 to i64
  %12 = and i64 %11, 1
  %.not7.i = icmp eq i64 %12, 0
  br i1 %.not7.i, label %lean_int_add.exit.thread10, label %14, !prof !14

lean_int_add.exit.thread10:                       ; preds = %10
  %13 = tail call ptr @lean_int_big_add(ptr noundef %5, ptr noundef %7) #5
  br label %lean_dec.exit

14:                                               ; preds = %10
  %15 = shl i64 %8, 31
  %16 = ashr i64 %15, 32
  %17 = shl i64 %11, 31
  %18 = ashr i64 %17, 32
  %19 = add nsw i64 %18, %16
  %20 = add nsw i64 %19, 2147483648
  %21 = icmp ult i64 %20, 4294967296
  br i1 %21, label %22, label %27, !prof !11

22:                                               ; preds = %14
  %23 = shl nsw i64 %19, 1
  %24 = and i64 %23, 8589934590
  %25 = or disjoint i64 %24, 1
  %26 = inttoptr i64 %25 to ptr
  br label %lean_dec.exit

27:                                               ; preds = %14
  %28 = tail call ptr @lean_big_int64_to_int(i64 noundef range(i64 -4294967296, 4294967296) %19) #5
  br label %lean_dec.exit

29:                                               ; preds = %2
  %30 = tail call ptr @lean_int_big_add(ptr noundef %5, ptr noundef %7) #5
  %31 = load i32, ptr %5, align 4, !tbaa !8
  %32 = icmp sgt i32 %31, 1
  br i1 %32, label %33, label %35, !prof !11

33:                                               ; preds = %29
  %34 = add nsw i32 %31, -1
  store i32 %34, ptr %5, align 4, !tbaa !8
  br label %lean_dec.exit

35:                                               ; preds = %29
  %.not.i = icmp eq i32 %31, 0
  br i1 %.not.i, label %lean_dec.exit, label %36

36:                                               ; preds = %35
  tail call void @lean_dec_ref_cold(ptr noundef nonnull %5) #5
  br label %lean_dec.exit

lean_dec.exit:                                    ; preds = %27, %22, %36, %35, %33, %lean_int_add.exit.thread10
  %.0.i9 = phi ptr [ %13, %lean_int_add.exit.thread10 ], [ %30, %33 ], [ %30, %35 ], [ %30, %36 ], [ %28, %27 ], [ %26, %22 ]
  ret ptr %.0.i9
}